; Function Attrs: mustprogress nounwind uwtable
define noundef zeroext i1 @_ZN7glslang11HlslGrammar15acceptArgumentsEPNS_9TFunctionERPNS_12TIntermTypedE(ptr noundef nonnull align 8 dereferenceable(360) %0, ptr noundef %1, ptr noundef nonnull align 8 dereferenceable(8) %2) local_unnamed_addr #0 align 2 {
  %4 = alloca ptr, align 8
  %5 = tail call noundef zeroext i1 @_ZN7glslang15HlslTokenStream16acceptTokenClassENS_15EHlslTokenClassE(ptr noundef nonnull align 8 dereferenceable(324) %0, i32 noundef 355) #16
  br i1 %5, label %6, label %.loopexit

6:                                                ; preds = %3
  %7 = tail call noundef zeroext i1 @_ZN7glslang15HlslTokenStream16acceptTokenClassENS_15EHlslTokenClassE(ptr noundef nonnull align 8 dereferenceable(324) %0, i32 noundef 356) #16
  br i1 %7, label %.loopexit, label %.preheader

.preheader:                                       ; preds = %6
  %8 = getelementptr inbounds i8, ptr %0, i64 328
  br label %9

9:                                                ; preds = %.preheader, %11
  %10 = call noundef zeroext i1 @_ZN7glslang11HlslGrammar26acceptAssignmentExpressionERPNS_12TIntermTypedE(ptr noundef nonnull align 8 dereferenceable(360) %0, ptr noundef nonnull align 8 dereferenceable(8) %4)
  br i1 %10, label %11, label %.loopexit

11:                                               ; preds = %9
  %12 = load ptr, ptr %8, align 8
  %13 = load ptr, ptr %4, align 8
  call void @_ZN7glslang16HlslParseContext22handleFunctionArgumentEPNS_9TFunctionERPNS_12TIntermTypedES4_(ptr noundef nonnull align 8 dereferenceable(2489) %12, ptr noundef %1, ptr noundef nonnull align 8 dereferenceable(8) %2, ptr noundef %13) #16
  %14 = call noundef zeroext i1 @_ZN7glslang15HlslTokenStream16acceptTokenClassENS_15EHlslTokenClassE(ptr noundef nonnull align 8 dereferenceable(324) %0, i32 noundef 362) #16
  br i1 %14, label %9, label %15, !llvm.loop !63

15:                                               ; preds = %11
  %16 = call noundef zeroext i1 @_ZN7glslang15HlslTokenStream16acceptTokenClassENS_15EHlslTokenClassE(ptr noundef nonnull align 8 dereferenceable(324) %0, i32 noundef 356) #16
  br i1 %16, label %.loopexit, label %17

17:                                               ; preds = %15
  %18 = load ptr, ptr %8, align 8
  %19 = getelementptr inbounds i8, ptr %0, i64 8
  %20 = load ptr, ptr %18, align 8
  %21 = getelementptr inbounds i8, ptr %20, i64 344
  %22 = load ptr, ptr %21, align 8
  call void (ptr, ptr, ptr, ptr, ptr, ...) %22(ptr noundef nonnull align 8 dereferenceable(1280) %18, ptr noundef nonnull align 8 dereferenceable(24) %19, ptr noundef nonnull @.str, ptr noundef nonnull @.str.43, ptr noundef nonnull @.str.1) #16
  br label %.loopexit

.loopexit:                                        ; preds = %9, %15, %6, %3, %17
  %.0 = phi i1 [ false, %17 ], [ false, %3 ], [ true, %6 ], [ true, %15 ], [ false, %9 ]
  ret i1 %.0
}